; Function Attrs: nofree norecurse nosync nounwind memory(read, inaccessiblemem: none) uwtable
define i32 @Lf_ObjArrival_rec(ptr noundef readonly captures(none) %0, ptr noundef %1) local_unnamed_addr #0 {
  %.val23 = load i64, ptr %1, align 4
  %3 = trunc i64 %.val23 to i32
  %4 = and i32 %3, 536870911
  %5 = lshr i64 %.val23, 32
  %6 = trunc nuw i64 %5 to i32
  %7 = and i32 %6, 536870911
  %8 = icmp eq i32 %4, %7
  %.not.i24 = icmp ne i32 %4, 536870911
  %or.cond.not.i25 = and i1 %.not.i24, %8
  %9 = and i64 %.val23, 2147483648
  %.not4.i26 = icmp eq i64 %9, 0
  %narrow.i27 = and i1 %.not4.i26, %or.cond.not.i25
  br i1 %narrow.i27, label %tailrecurse, label %tailrecurse._crit_edge

tailrecurse:                                      ; preds = %2, %tailrecurse
  %.val29 = phi i64 [ %.val, %tailrecurse ], [ %.val23, %2 ]
  %.tr2228 = phi ptr [ %12, %tailrecurse ], [ %1, %2 ]
  %10 = and i64 %.val29, 536870911
  %11 = sub nsw i64 0, %10
  %12 = getelementptr inbounds %struct.Gia_Obj_t_, ptr %.tr2228, i64 %11
  %.val = load i64, ptr %12, align 4
  %13 = trunc i64 %.val to i32
  %14 = and i32 %13, 536870911
  %15 = lshr i64 %.val, 32
  %16 = trunc nuw i64 %15 to i32
  %17 = and i32 %16, 536870911
  %18 = icmp eq i32 %14, %17
  %.not.i = icmp ne i32 %14, 536870911
  %or.cond.not.i = and i1 %.not.i, %18
  %19 = and i64 %.val, 2147483648
  %.not4.i = icmp eq i64 %19, 0
  %narrow.i = and i1 %.not4.i, %or.cond.not.i
  br i1 %narrow.i, label %tailrecurse, label %tailrecurse._crit_edge

tailrecurse._crit_edge:                           ; preds = %tailrecurse, %2
  %.tr22.lcssa = phi ptr [ %1, %2 ], [ %12, %tailrecurse ]
  %.val.lcssa = phi i64 [ %.val23, %2 ], [ %.val, %tailrecurse ]
  %.lcssa = phi i64 [ %5, %2 ], [ %15, %tailrecurse ]
  %.not4.i.lcssa = phi i1 [ %.not4.i26, %2 ], [ %.not4.i, %tailrecurse ]
  %20 = and i64 %.val.lcssa, 536870911
  %21 = icmp ne i64 %20, 536870911
  %narrow.i20 = and i1 %.not4.i.lcssa, %21
  br i1 %narrow.i20, label %22, label %37

22:                                               ; preds = %tailrecurse._crit_edge
  %23 = load ptr, ptr %0, align 8, !tbaa !3
  %24 = getelementptr i8, ptr %23, i64 32
  %.val13 = load ptr, ptr %24, align 8, !tbaa !22
  %25 = ptrtoint ptr %.tr22.lcssa to i64
  %26 = ptrtoint ptr %.val13 to i64
  %27 = sub i64 %25, %26
  %28 = sdiv exact i64 %27, 12
  %29 = getelementptr i8, ptr %0, i64 24
  %.val14 = load ptr, ptr %29, align 8, !tbaa !38
  %30 = getelementptr i8, ptr %0, i64 176
  %.val15 = load ptr, ptr %30, align 8, !tbaa !39
  %sext = shl i64 %28, 32
  %31 = ashr exact i64 %sext, 30
  %32 = getelementptr inbounds i8, ptr %.val15, i64 %31
  %33 = load i32, ptr %32, align 4, !tbaa !40
  %34 = sext i32 %33 to i64
  %35 = getelementptr inbounds %struct.Lf_Bst_t_, ptr %.val14, i64 %34
  %36 = load i32, ptr %35, align 4, !tbaa !40
  br label %44

37:                                               ; preds = %tailrecurse._crit_edge
  %38 = and i64 %.val.lcssa, 2684354559
  %narrow.i21.not = icmp eq i64 %38, 2684354559
  br i1 %narrow.i21.not, label %39, label %44

39:                                               ; preds = %37
  %40 = getelementptr i8, ptr %0, i64 272
  %.val18 = load ptr, ptr %40, align 8, !tbaa !39
  %41 = and i64 %.lcssa, 536870911
  %42 = getelementptr inbounds nuw i32, ptr %.val18, i64 %41
  %43 = load i32, ptr %42, align 4, !tbaa !40
  br label %44

44:                                               ; preds = %37, %39, %22
  %.0 = phi i32 [ %36, %22 ], [ %43, %39 ], [ 0, %37 ]
  ret i32 %.0
}